target datalayout = "e-m:e-p270:32:32-p271:32:32-p272:64:64-i64:64-i128:128-f80:128-n8:16:32:64-S128"
target triple = "x86_64-pc-linux-gnu"

%struct.point_t = type { float, float }
%struct.dt_lut_t = type { ptr, ptr, ptr, ptr, ptr, ptr, ptr, ptr, ptr, ptr, ptr, ptr, ptr, ptr, ptr, ptr, ptr, %struct.image_t, %struct.image_t, ptr, ptr, ptr, ptr, ptr }
%struct.image_t = type { ptr, ptr, ptr, i32, i32, ptr, float, i32, i32, float, [4 x %struct.point_t], ptr, i32 }
%struct.chart_t = type { ptr, ptr, ptr, ptr, float, float, float, float }
%struct._GtkTreeIter = type { i32, ptr, ptr, ptr }
%struct.box_t = type { %struct.point_t, float, float, i32, [12 x i8], [4 x float], [4 x float] }

@.str.62 = private unnamed_addr constant [11 x i8] c"%d; %d; %d\00", align 1
@.str.63 = private unnamed_addr constant [20 x i8] c"%.02f; %.02f; %.02f\00", align 1
@.str.64 = private unnamed_addr constant [6 x i8] c"%.02f\00", align 1
@.str.65 = private unnamed_addr constant [2 x i8] c"?\00", align 1
@.str.66 = private unnamed_addr constant [2 x i8] c"-\00", align 1

; Function Attrs: nounwind uwtable
define internal void @update_table(ptr noundef %0) #0 {
  %2 = alloca ptr, align 8
  %3 = alloca %struct._GtkTreeIter, align 8
  %4 = alloca i32, align 4
  %5 = alloca ptr, align 8
  %6 = alloca ptr, align 8
  %7 = alloca [4 x float], align 16
  %8 = alloca ptr, align 8
  %9 = alloca ptr, align 8
  %10 = alloca ptr, align 8
  %11 = alloca ptr, align 8
  %12 = alloca float, align 4
  %13 = alloca float, align 4
  %14 = alloca ptr, align 8
  %15 = alloca [4 x float], align 16
  %16 = alloca ptr, align 8
  store ptr %0, ptr %2, align 8, !tbaa !14
  call void @llvm.lifetime.start.p0(i64 32, ptr %3) #15
  call void @llvm.lifetime.start.p0(i64 4, ptr %4) #15
  %17 = load ptr, ptr %2, align 8, !tbaa !14
  %18 = getelementptr inbounds nuw %struct.dt_lut_t, ptr %17, i32 0, i32 16
  %19 = load ptr, ptr %18, align 8, !tbaa !30
  %20 = call i32 @gtk_tree_model_get_iter_first(ptr noundef %19, ptr noundef %3)
  store i32 %20, ptr %4, align 4, !tbaa !7
  br label %21

21:                                               ; preds = %132, %1
  %22 = load i32, ptr %4, align 4, !tbaa !7
  %23 = icmp ne i32 %22, 0
  br i1 %23, label %24, label %138

24:                                               ; preds = %21
  call void @llvm.lifetime.start.p0(i64 8, ptr %5) #15
  %25 = load ptr, ptr %2, align 8, !tbaa !14
  %26 = getelementptr inbounds nuw %struct.dt_lut_t, ptr %25, i32 0, i32 16
  %27 = load ptr, ptr %26, align 8, !tbaa !30
  call void (ptr, ptr, ...) @gtk_tree_model_get(ptr noundef %27, ptr noundef %3, i32 noundef 0, ptr noundef %5, i32 noundef -1)
  call void @llvm.lifetime.start.p0(i64 8, ptr %6) #15
  %28 = load ptr, ptr %2, align 8, !tbaa !14
  %29 = getelementptr inbounds nuw %struct.dt_lut_t, ptr %28, i32 0, i32 20
  %30 = load ptr, ptr %29, align 8, !tbaa !31
  %31 = getelementptr inbounds nuw %struct.chart_t, ptr %30, i32 0, i32 2
  %32 = load ptr, ptr %31, align 8, !tbaa !124
  %33 = load ptr, ptr %5, align 8, !tbaa !29
  %34 = call ptr @g_hash_table_lookup(ptr noundef %32, ptr noundef %33)
  store ptr %34, ptr %6, align 8, !tbaa !125
  %35 = load ptr, ptr %6, align 8, !tbaa !125
  %36 = icmp ne ptr %35, null
  br i1 %36, label %37, label %132

37:                                               ; preds = %24
  call void @llvm.lifetime.start.p0(i64 16, ptr %7) #15
  call void @llvm.memset.p0.i64(ptr align 16 %7, i8 0, i64 16, i1 false)
  call void @llvm.lifetime.start.p0(i64 8, ptr %8) #15
  call void @llvm.lifetime.start.p0(i64 8, ptr %9) #15
  call void @llvm.lifetime.start.p0(i64 8, ptr %10) #15
  call void @llvm.lifetime.start.p0(i64 8, ptr %11) #15
  call void @llvm.lifetime.start.p0(i64 4, ptr %12) #15
  store float 0.000000e+00, ptr %12, align 4, !tbaa !60
  call void @llvm.lifetime.start.p0(i64 4, ptr %13) #15
  store float 0.000000e+00, ptr %13, align 4, !tbaa !60
  %38 = load ptr, ptr %6, align 8, !tbaa !125
  %39 = getelementptr inbounds [4 x float], ptr %7, i64 0, i64 0
  call void @get_Lab_from_box(ptr noundef %38, ptr noundef %39)
  call void @llvm.lifetime.start.p0(i64 8, ptr %14) #15
  %40 = load ptr, ptr %2, align 8, !tbaa !14
  %41 = getelementptr inbounds nuw %struct.dt_lut_t, ptr %40, i32 0, i32 21
  %42 = load ptr, ptr %41, align 8, !tbaa !16
  %43 = load ptr, ptr %5, align 8, !tbaa !29
  %44 = call ptr @g_hash_table_lookup(ptr noundef %42, ptr noundef %43)
  store ptr %44, ptr %14, align 8, !tbaa !125
  %45 = load ptr, ptr %14, align 8, !tbaa !125
  %46 = icmp ne ptr %45, null
  br i1 %46, label %47, label %97

47:                                               ; preds = %37
  call void @llvm.lifetime.start.p0(i64 16, ptr %15) #15
  call void @llvm.memset.p0.i64(ptr align 16 %15, i8 0, i64 16, i1 false)
  %48 = load ptr, ptr %14, align 8, !tbaa !125
  %49 = getelementptr inbounds [4 x float], ptr %15, i64 0, i64 0
  call void @get_Lab_from_box(ptr noundef %48, ptr noundef %49)
  %50 = load ptr, ptr %14, align 8, !tbaa !125
  %51 = getelementptr inbounds nuw %struct.box_t, ptr %50, i32 0, i32 6
  %52 = getelementptr inbounds [4 x float], ptr %51, i64 0, i64 0
  %53 = load float, ptr %52, align 16, !tbaa !60
  %54 = fmul reassoc nsz arcp contract afn float %53, 2.550000e+02
  %55 = fpext reassoc nsz arcp contract afn float %54 to double
  %56 = fadd reassoc nsz arcp contract afn double %55, 5.000000e-01
  %57 = fptosi double %56 to i32
  %58 = load ptr, ptr %14, align 8, !tbaa !125
  %59 = getelementptr inbounds nuw %struct.box_t, ptr %58, i32 0, i32 6
  %60 = getelementptr inbounds [4 x float], ptr %59, i64 0, i64 1
  %61 = load float, ptr %60, align 4, !tbaa !60
  %62 = fmul reassoc nsz arcp contract afn float %61, 2.550000e+02
  %63 = fpext reassoc nsz arcp contract afn float %62 to double
  %64 = fadd reassoc nsz arcp contract afn double %63, 5.000000e-01
  %65 = fptosi double %64 to i32
  %66 = load ptr, ptr %14, align 8, !tbaa !125
  %67 = getelementptr inbounds nuw %struct.box_t, ptr %66, i32 0, i32 6
  %68 = getelementptr inbounds [4 x float], ptr %67, i64 0, i64 2
  %69 = load float, ptr %68, align 8, !tbaa !60
  %70 = fmul reassoc nsz arcp contract afn float %69, 2.550000e+02
  %71 = fpext reassoc nsz arcp contract afn float %70 to double
  %72 = fadd reassoc nsz arcp contract afn double %71, 5.000000e-01
  %73 = fptosi double %72 to i32
  %74 = call noalias ptr (ptr, ...) @g_strdup_printf(ptr noundef @.str.62, i32 noundef %57, i32 noundef %65, i32 noundef %73)
  store ptr %74, ptr %9, align 8, !tbaa !29
  %75 = getelementptr inbounds [4 x float], ptr %15, i64 0, i64 0
  %76 = load float, ptr %75, align 16, !tbaa !60
  %77 = fpext reassoc nsz arcp contract afn float %76 to double
  %78 = getelementptr inbounds [4 x float], ptr %15, i64 0, i64 1
  %79 = load float, ptr %78, align 4, !tbaa !60
  %80 = fpext reassoc nsz arcp contract afn float %79 to double
  %81 = getelementptr inbounds [4 x float], ptr %15, i64 0, i64 2
  %82 = load float, ptr %81, align 8, !tbaa !60
  %83 = fpext reassoc nsz arcp contract afn float %82 to double
  %84 = call noalias ptr (ptr, ...) @g_strdup_printf(ptr noundef @.str.63, double noundef %77, double noundef %80, double noundef %83)
  store ptr %84, ptr %8, align 8, !tbaa !29
  %85 = getelementptr inbounds [4 x float], ptr %15, i64 0, i64 0
  %86 = getelementptr inbounds [4 x float], ptr %7, i64 0, i64 0
  %87 = call reassoc nsz arcp contract afn float @dt_colorspaces_deltaE_1976(ptr noundef %85, ptr noundef %86)
  store float %87, ptr %12, align 4, !tbaa !60
  %88 = getelementptr inbounds [4 x float], ptr %15, i64 0, i64 0
  %89 = getelementptr inbounds [4 x float], ptr %7, i64 0, i64 0
  %90 = call reassoc nsz arcp contract afn float @dt_colorspaces_deltaE_2000(ptr noundef %88, ptr noundef %89)
  store float %90, ptr %13, align 4, !tbaa !60
  %91 = load float, ptr %12, align 4, !tbaa !60
  %92 = fpext reassoc nsz arcp contract afn float %91 to double
  %93 = call noalias ptr (ptr, ...) @g_strdup_printf(ptr noundef @.str.64, double noundef %92)
  store ptr %93, ptr %10, align 8, !tbaa !29
  %94 = load float, ptr %13, align 4, !tbaa !60
  %95 = fpext reassoc nsz arcp contract afn float %94 to double
  %96 = call noalias ptr (ptr, ...) @g_strdup_printf(ptr noundef @.str.64, double noundef %95)
  store ptr %96, ptr %11, align 8, !tbaa !29
  call void @llvm.lifetime.end.p0(i64 16, ptr %15) #15
  br label %102

97:                                               ; preds = %37
  %98 = call noalias ptr @g_strdup(ptr noundef @.str.65)
  store ptr %98, ptr %8, align 8, !tbaa !29
  %99 = call noalias ptr @g_strdup(ptr noundef @.str.65)
  store ptr %99, ptr %9, align 8, !tbaa !29
  %100 = call noalias ptr @g_strdup(ptr noundef @.str.66)
  store ptr %100, ptr %10, align 8, !tbaa !29
  %101 = call noalias ptr @g_strdup(ptr noundef @.str.66)
  store ptr %101, ptr %11, align 8, !tbaa !29
  br label %102

102:                                              ; preds = %97, %47
  call void @llvm.lifetime.start.p0(i64 8, ptr %16) #15
  %103 = getelementptr inbounds [4 x float], ptr %7, i64 0, i64 0
  %104 = load float, ptr %103, align 16, !tbaa !60
  %105 = fpext reassoc nsz arcp contract afn float %104 to double
  %106 = getelementptr inbounds [4 x float], ptr %7, i64 0, i64 1
  %107 = load float, ptr %106, align 4, !tbaa !60
  %108 = fpext reassoc nsz arcp contract afn float %107 to double
  %109 = getelementptr inbounds [4 x float], ptr %7, i64 0, i64 2
  %110 = load float, ptr %109, align 8, !tbaa !60
  %111 = fpext reassoc nsz arcp contract afn float %110 to double
  %112 = call noalias ptr (ptr, ...) @g_strdup_printf(ptr noundef @.str.63, double noundef %105, double noundef %108, double noundef %111)
  store ptr %112, ptr %16, align 8, !tbaa !29
  %113 = load ptr, ptr %2, align 8, !tbaa !14
  %114 = getelementptr inbounds nuw %struct.dt_lut_t, ptr %113, i32 0, i32 16
  %115 = load ptr, ptr %114, align 8, !tbaa !30
  %116 = call i64 @gtk_list_store_get_type() #18
  %117 = call ptr @g_type_check_instance_cast(ptr noundef %115, i64 noundef %116)
  %118 = load ptr, ptr %9, align 8, !tbaa !29
  %119 = load ptr, ptr %8, align 8, !tbaa !29
  %120 = load ptr, ptr %16, align 8, !tbaa !29
  %121 = load ptr, ptr %10, align 8, !tbaa !29
  %122 = load float, ptr %12, align 4, !tbaa !60
  %123 = fpext reassoc nsz arcp contract afn float %122 to double
  %124 = load ptr, ptr %11, align 8, !tbaa !29
  %125 = load float, ptr %13, align 4, !tbaa !60
  %126 = fpext reassoc nsz arcp contract afn float %125 to double
  call void (ptr, ptr, ...) @gtk_list_store_set(ptr noundef %117, ptr noundef %3, i32 noundef 1, ptr noundef %118, i32 noundef 2, ptr noundef %119, i32 noundef 3, ptr noundef %120, i32 noundef 4, ptr noundef %121, i32 noundef 5, double noundef %123, i32 noundef 6, ptr noundef %124, i32 noundef 7, double noundef %126, i32 noundef -1)
  %127 = load ptr, ptr %9, align 8, !tbaa !29
  call void @g_free(ptr noundef %127)
  %128 = load ptr, ptr %8, align 8, !tbaa !29
  call void @g_free(ptr noundef %128)
  %129 = load ptr, ptr %16, align 8, !tbaa !29
  call void @g_free(ptr noundef %129)
  %130 = load ptr, ptr %10, align 8, !tbaa !29
  call void @g_free(ptr noundef %130)
  %131 = load ptr, ptr %11, align 8, !tbaa !29
  call void @g_free(ptr noundef %131)
  call void @llvm.lifetime.end.p0(i64 8, ptr %16) #15
  call void @llvm.lifetime.end.p0(i64 8, ptr %14) #15
  call void @llvm.lifetime.end.p0(i64 4, ptr %13) #15
  call void @llvm.lifetime.end.p0(i64 4, ptr %12) #15
  call void @llvm.lifetime.end.p0(i64 8, ptr %11) #15
  call void @llvm.lifetime.end.p0(i64 8, ptr %10) #15
  call void @llvm.lifetime.end.p0(i64 8, ptr %9) #15
  call void @llvm.lifetime.end.p0(i64 8, ptr %8) #15
  call void @llvm.lifetime.end.p0(i64 16, ptr %7) #15
  br label %132

132:                                              ; preds = %102, %24
  %133 = load ptr, ptr %5, align 8, !tbaa !29
  call void @g_free(ptr noundef %133)
  %134 = load ptr, ptr %2, align 8, !tbaa !14
  %135 = getelementptr inbounds nuw %struct.dt_lut_t, ptr %134, i32 0, i32 16
  %136 = load ptr, ptr %135, align 8, !tbaa !30
  %137 = call i32 @gtk_tree_model_iter_next(ptr noundef %136, ptr noundef %3)
  store i32 %137, ptr %4, align 4, !tbaa !7
  call void @llvm.lifetime.end.p0(i64 8, ptr %6) #15
  call void @llvm.lifetime.end.p0(i64 8, ptr %5) #15
  br label %21

138:                                              ; preds = %21
  call void @llvm.lifetime.end.p0(i64 4, ptr %4) #15
  call void @llvm.lifetime.end.p0(i64 32, ptr %3) #15
  ret void
}