; Function Attrs: nounwind uwtable
define internal fastcc void @update_table(ptr noundef readonly captures(none) %0) unnamed_addr #0 {
  %2 = alloca %struct._GtkTreeIter, align 8
  %3 = alloca ptr, align 8
  %4 = alloca [4 x float], align 16
  %5 = alloca [4 x float], align 16
  call void @llvm.lifetime.start.p0(i64 32, ptr nonnull %2) #24
  %6 = getelementptr inbounds nuw i8, ptr %0, i64 128
  %7 = load ptr, ptr %6, align 8, !tbaa !56
  %8 = call i32 @gtk_tree_model_get_iter_first(ptr noundef %7, ptr noundef nonnull %2) #24
  %.not37 = icmp eq i32 %8, 0
  br i1 %.not37, label %._crit_edge, label %.lr.ph

.lr.ph:                                           ; preds = %1
  %9 = getelementptr inbounds nuw i8, ptr %0, i64 352
  %10 = getelementptr inbounds nuw i8, ptr %0, i64 360
  %11 = getelementptr inbounds nuw i8, ptr %5, i64 4
  %12 = getelementptr inbounds nuw i8, ptr %5, i64 8
  %13 = getelementptr inbounds nuw i8, ptr %4, i64 4
  %14 = getelementptr inbounds nuw i8, ptr %4, i64 8
  br label %15

15:                                               ; preds = %.lr.ph, %75
  call void @llvm.lifetime.start.p0(i64 8, ptr nonnull %3) #24
  %16 = load ptr, ptr %6, align 8, !tbaa !56
  call void (ptr, ptr, ...) @gtk_tree_model_get(ptr noundef %16, ptr noundef nonnull %2, i32 noundef 0, ptr noundef nonnull %3, i32 noundef -1) #24
  %17 = load ptr, ptr %9, align 8, !tbaa !64
  %18 = getelementptr inbounds nuw i8, ptr %17, i64 16
  %19 = load ptr, ptr %18, align 8, !tbaa !75
  %20 = load ptr, ptr %3, align 8, !tbaa !24
  %21 = call ptr @g_hash_table_lookup(ptr noundef %19, ptr noundef %20) #24
  %.not35 = icmp eq ptr %21, null
  br i1 %.not35, label %75, label %22

22:                                               ; preds = %15
  call void @llvm.lifetime.start.p0(i64 16, ptr nonnull %4) #24
  call void @llvm.memset.p0.i64(ptr noundef nonnull align 16 dereferenceable(16) %4, i8 0, i64 16, i1 false)
  call fastcc void @get_Lab_from_box(ptr noundef %21, ptr noundef %4)
  %23 = load ptr, ptr %10, align 8, !tbaa !7
  %24 = load ptr, ptr %3, align 8, !tbaa !24
  %25 = call ptr @g_hash_table_lookup(ptr noundef %23, ptr noundef %24) #24
  %.not36 = icmp eq ptr %25, null
  br i1 %.not36, label %59, label %26

26:                                               ; preds = %22
  call void @llvm.lifetime.start.p0(i64 16, ptr nonnull %5) #24
  call void @llvm.memset.p0.i64(ptr noundef nonnull align 16 dereferenceable(16) %5, i8 0, i64 16, i1 false)
  call fastcc void @get_Lab_from_box(ptr noundef %25, ptr noundef %5)
  %27 = getelementptr inbounds nuw i8, ptr %25, i64 48
  %28 = load float, ptr %27, align 16, !tbaa !67
  %29 = fmul reassoc nsz arcp contract afn float %28, 2.550000e+02
  %30 = fpext reassoc nsz arcp contract afn float %29 to double
  %31 = fadd reassoc nsz arcp contract afn double %30, 5.000000e-01
  %32 = fptosi double %31 to i32
  %33 = getelementptr inbounds nuw i8, ptr %25, i64 52
  %34 = load float, ptr %33, align 4, !tbaa !67
  %35 = fmul reassoc nsz arcp contract afn float %34, 2.550000e+02
  %36 = fpext reassoc nsz arcp contract afn float %35 to double
  %37 = fadd reassoc nsz arcp contract afn double %36, 5.000000e-01
  %38 = fptosi double %37 to i32
  %39 = getelementptr inbounds nuw i8, ptr %25, i64 56
  %40 = load float, ptr %39, align 8, !tbaa !67
  %41 = fmul reassoc nsz arcp contract afn float %40, 2.550000e+02
  %42 = fpext reassoc nsz arcp contract afn float %41 to double
  %43 = fadd reassoc nsz arcp contract afn double %42, 5.000000e-01
  %44 = fptosi double %43 to i32
  %45 = call noalias ptr (ptr, ...) @g_strdup_printf(ptr noundef nonnull @.str.62, i32 noundef %32, i32 noundef %38, i32 noundef %44) #24
  %46 = load float, ptr %5, align 16, !tbaa !67
  %47 = fpext reassoc nsz arcp contract afn float %46 to double
  %48 = load float, ptr %11, align 4, !tbaa !67
  %49 = fpext reassoc nsz arcp contract afn float %48 to double
  %50 = load float, ptr %12, align 8, !tbaa !67
  %51 = fpext reassoc nsz arcp contract afn float %50 to double
  %52 = call noalias ptr (ptr, ...) @g_strdup_printf(ptr noundef nonnull @.str.63, double noundef %47, double noundef %49, double noundef %51) #24
  %53 = call reassoc nsz arcp contract afn float @dt_colorspaces_deltaE_1976(ptr noundef nonnull %5, ptr noundef nonnull %4) #24
  %54 = call reassoc nsz arcp contract afn float @dt_colorspaces_deltaE_2000(ptr noundef nonnull %5, ptr noundef nonnull %4) #24
  %55 = fpext reassoc nsz arcp contract afn float %53 to double
  %56 = call noalias ptr (ptr, ...) @g_strdup_printf(ptr noundef nonnull @.str.64, double noundef %55) #24
  %57 = fpext reassoc nsz arcp contract afn float %54 to double
  %58 = call noalias ptr (ptr, ...) @g_strdup_printf(ptr noundef nonnull @.str.64, double noundef %57) #24
  call void @llvm.lifetime.end.p0(i64 16, ptr nonnull %5) #24
  br label %64

59:                                               ; preds = %22
  %60 = call noalias ptr @g_strdup(ptr noundef nonnull @.str.65) #24
  %61 = call noalias ptr @g_strdup(ptr noundef nonnull @.str.65) #24
  %62 = call noalias ptr @g_strdup(ptr noundef nonnull @.str.66) #24
  %63 = call noalias ptr @g_strdup(ptr noundef nonnull @.str.66) #24
  br label %64

64:                                               ; preds = %59, %26
  %.032 = phi ptr [ %45, %26 ], [ %61, %59 ]
  %.031 = phi ptr [ %56, %26 ], [ %62, %59 ]
  %.030 = phi ptr [ %58, %26 ], [ %63, %59 ]
  %.029 = phi double [ %55, %26 ], [ 0.000000e+00, %59 ]
  %.028 = phi double [ %57, %26 ], [ 0.000000e+00, %59 ]
  %.027 = phi ptr [ %52, %26 ], [ %60, %59 ]
  %65 = load float, ptr %4, align 16, !tbaa !67
  %66 = fpext reassoc nsz arcp contract afn float %65 to double
  %67 = load float, ptr %13, align 4, !tbaa !67
  %68 = fpext reassoc nsz arcp contract afn float %67 to double
  %69 = load float, ptr %14, align 8, !tbaa !67
  %70 = fpext reassoc nsz arcp contract afn float %69 to double
  %71 = call noalias ptr (ptr, ...) @g_strdup_printf(ptr noundef nonnull @.str.63, double noundef %66, double noundef %68, double noundef %70) #24
  %72 = load ptr, ptr %6, align 8, !tbaa !56
  %73 = tail call i64 @gtk_list_store_get_type() #28
  %74 = call ptr @g_type_check_instance_cast(ptr noundef %72, i64 noundef %73) #24
  call void (ptr, ptr, ...) @gtk_list_store_set(ptr noundef %74, ptr noundef nonnull %2, i32 noundef 1, ptr noundef %.032, i32 noundef 2, ptr noundef %.027, i32 noundef 3, ptr noundef %71, i32 noundef 4, ptr noundef %.031, i32 noundef 5, double noundef %.029, i32 noundef 6, ptr noundef %.030, i32 noundef 7, double noundef %.028, i32 noundef -1) #24
  call void @g_free(ptr noundef %.032) #24
  call void @g_free(ptr noundef %.027) #24
  call void @g_free(ptr noundef %71) #24
  call void @g_free(ptr noundef %.031) #24
  call void @g_free(ptr noundef %.030) #24
  call void @llvm.lifetime.end.p0(i64 16, ptr nonnull %4) #24
  br label %75

75:                                               ; preds = %64, %15
  %76 = load ptr, ptr %3, align 8, !tbaa !24
  call void @g_free(ptr noundef %76) #24
  %77 = load ptr, ptr %6, align 8, !tbaa !56
  %78 = call i32 @gtk_tree_model_iter_next(ptr noundef %77, ptr noundef nonnull %2) #24
  call void @llvm.lifetime.end.p0(i64 8, ptr nonnull %3) #24
  %.not = icmp eq i32 %78, 0
  br i1 %.not, label %._crit_edge, label %15

._crit_edge:                                      ; preds = %75, %1
  call void @llvm.lifetime.end.p0(i64 32, ptr nonnull %2) #24
  ret void
}